target datalayout = "e-m:e-p270:32:32-p271:32:32-p272:64:64-i64:64-i128:128-f80:128-n8:16:32:64-S128"
target triple = "x86_64-pc-linux-gnu"

%struct.ProbContext = type { [4 x [9 x i8]], [10 x [9 x i8]], [4 x [2 x i8]], [7 x [3 x i8]], [4 x i8], [5 x i8], [5 x [2 x i8]], [5 x i8], [2 x [3 x i8]], [2 x [2 x i8]], [2 x i8], [3 x i8], [3 x i8], [2 x %struct.anon.8], [4 x [4 x [3 x i8]]] }
%struct.anon.8 = type { i8, [10 x i8], i8, [10 x i8], [2 x [3 x i8]], [3 x i8], i8, i8 }
%struct.AVCodecContext = type { ptr, i32, i32, ptr, i32, i32, ptr, ptr, ptr, i64, i32, i32, ptr, i32, %struct.AVRational, %struct.AVRational, %struct.AVRational, i32, i32, i32, i32, i32, %struct.AVRational, i32, i32, i32, i32, i32, i32, i32, i32, i32, i32, i32, ptr, ptr, i32, float, float, float, float, float, float, float, float, float, i32, i32, i32, i32, i32, i32, i32, i32, i32, i32, i32, i32, ptr, ptr, ptr, i32, i32, i32, i32, i32, i32, i32, i32, i32, i32, %struct.AVChannelLayout, i32, i32, i32, i32, i32, i32, i32, i32, ptr, i32, i32, i32, float, float, i32, i32, i32, i32, i32, ptr, i64, i64, float, float, i32, i32, ptr, ptr, i32, i32, i32, i32, i32, ptr, ptr, ptr, ptr, i32, i32, [8 x i64], i32, i32, i32, i32, i32, i32, i32, ptr, ptr, i32, i32, i32, i32, i32, i32, i32, i32, i32, i32, ptr, ptr, i32, i32, ptr, ptr, ptr, ptr, i32, i32, i64, i32, i32, i64, ptr, i64, ptr, i32, ptr, i32 }
%struct.AVRational = type { i32, i32 }
%struct.AVChannelLayout = type { i32, i32, %union.anon.0, ptr }
%union.anon.0 = type { i64 }
%struct.VP9Context = type { %struct.VP9SharedContext, ptr, %struct.VP9DSPContext, %struct.VideoDSPContext, %struct.GetBitContext, %struct.VPXRangeCoder, i32, i32, %union.pthread_mutex_t, %union.pthread_cond_t, ptr, i32, i8, i8, i8, i8, i8, i8, i32, i32, i32, i32, i32, i32, i32, i32, i32, [8 x %struct.ProgressFrame], %struct.anon.6, [4 x %struct.anon.7], %struct.anon.9, ptr, ptr, ptr, [2 x ptr], ptr, ptr, ptr, ptr, ptr, ptr, ptr, ptr, [3 x ptr], ptr, i32, [3 x [2 x i16]], [3 x [2 x i8]], ptr, i32 }
%struct.VP9SharedContext = type { %struct.VP9BitstreamHeader, [8 x %struct.ProgressFrame], [4 x %struct.VP9Frame] }
%struct.VP9BitstreamHeader = type { i8, i8, i8, i8, i8, i8, i8, i8, i8, i32, i8, i8, i8, i8, i8, [3 x i8], [3 x i8], i8, [2 x i8], %struct.anon, %struct.anon.1, i8, i8, i8, i8, i8, %struct.anon.2, i32, i32, %struct.anon.4, i32, i32 }
%struct.anon = type { i8, i8 }
%struct.anon.1 = type { i8, i8, [2 x i8], [4 x i8] }
%struct.anon.2 = type { i8, i8, i8, i8, [7 x i8], [3 x i8], [8 x %struct.anon.3] }
%struct.anon.3 = type { i8, i8, i8, i8, i8, i16, i8, [2 x [2 x i16]], [4 x [2 x i8]] }
%struct.anon.4 = type { i32, i32, i32, i32 }
%struct.VP9Frame = type { %struct.ProgressFrame, ptr, ptr, ptr, i32, ptr }
%struct.ProgressFrame = type { ptr, ptr }
%struct.VP9DSPContext = type { [4 x [15 x ptr]], [5 x [4 x ptr]], [3 x [2 x ptr]], [2 x ptr], [2 x [2 x [2 x ptr]]], [5 x [4 x [2 x [2 x [2 x ptr]]]]], [5 x [4 x [2 x ptr]]] }
%struct.VideoDSPContext = type { ptr, ptr }
%struct.GetBitContext = type { ptr, ptr, i32, i32, i32 }
%struct.VPXRangeCoder = type { i32, i32, ptr, ptr, i32, i32 }
%union.pthread_mutex_t = type { %struct.__pthread_mutex_s }
%struct.__pthread_mutex_s = type { i32, i32, i32, i32, i32, i16, i16, %struct.__pthread_internal_list }
%struct.__pthread_internal_list = type { ptr, ptr }
%union.pthread_cond_t = type { %struct.__pthread_cond_s }
%struct.__pthread_cond_s = type { %union.__atomic_wide_counter, %union.__atomic_wide_counter, [2 x i32], [2 x i32], i32, i32, [2 x i32] }
%union.__atomic_wide_counter = type { i64 }
%struct.anon.6 = type { [64 x i8], [64 x i8] }
%struct.anon.7 = type { %struct.ProbContext, [4 x [2 x [2 x [6 x [6 x [3 x i8]]]]]] }
%struct.anon.9 = type { %struct.ProbContext, [4 x [2 x [2 x [6 x [6 x [11 x i8]]]]]] }

; Function Attrs: nounwind uwtable
define internal void @vp9_frame_replace(ptr noundef %0, ptr noundef %1) #0 {
  %3 = alloca ptr, align 8
  %4 = alloca ptr, align 8
  store ptr %0, ptr %3, align 8, !tbaa !98
  store ptr %1, ptr %4, align 8, !tbaa !98
  %5 = load ptr, ptr %3, align 8, !tbaa !98
  %6 = getelementptr inbounds nuw %struct.VP9Frame, ptr %5, i32 0, i32 0
  %7 = load ptr, ptr %4, align 8, !tbaa !98
  %8 = getelementptr inbounds nuw %struct.VP9Frame, ptr %7, i32 0, i32 0
  call void @ff_progress_frame_replace(ptr noundef %6, ptr noundef %8)
  %9 = load ptr, ptr %3, align 8, !tbaa !98
  %10 = getelementptr inbounds nuw %struct.VP9Frame, ptr %9, i32 0, i32 1
  %11 = load ptr, ptr %4, align 8, !tbaa !98
  %12 = getelementptr inbounds nuw %struct.VP9Frame, ptr %11, i32 0, i32 1
  %13 = load ptr, ptr %12, align 8, !tbaa !172
  call void @av_refstruct_replace(ptr noundef %10, ptr noundef %13)
  %14 = load ptr, ptr %4, align 8, !tbaa !98
  %15 = getelementptr inbounds nuw %struct.VP9Frame, ptr %14, i32 0, i32 2
  %16 = load ptr, ptr %15, align 8, !tbaa !82
  %17 = load ptr, ptr %3, align 8, !tbaa !98
  %18 = getelementptr inbounds nuw %struct.VP9Frame, ptr %17, i32 0, i32 2
  store ptr %16, ptr %18, align 8, !tbaa !82
  %19 = load ptr, ptr %4, align 8, !tbaa !98
  %20 = getelementptr inbounds nuw %struct.VP9Frame, ptr %19, i32 0, i32 3
  %21 = load ptr, ptr %20, align 8, !tbaa !173
  %22 = load ptr, ptr %3, align 8, !tbaa !98
  %23 = getelementptr inbounds nuw %struct.VP9Frame, ptr %22, i32 0, i32 3
  store ptr %21, ptr %23, align 8, !tbaa !173
  %24 = load ptr, ptr %4, align 8, !tbaa !98
  %25 = getelementptr inbounds nuw %struct.VP9Frame, ptr %24, i32 0, i32 4
  %26 = load i32, ptr %25, align 8, !tbaa !126
  %27 = load ptr, ptr %3, align 8, !tbaa !98
  %28 = getelementptr inbounds nuw %struct.VP9Frame, ptr %27, i32 0, i32 4
  store i32 %26, ptr %28, align 8, !tbaa !126
  %29 = load ptr, ptr %3, align 8, !tbaa !98
  %30 = getelementptr inbounds nuw %struct.VP9Frame, ptr %29, i32 0, i32 5
  %31 = load ptr, ptr %4, align 8, !tbaa !98
  %32 = getelementptr inbounds nuw %struct.VP9Frame, ptr %31, i32 0, i32 5
  %33 = load ptr, ptr %32, align 8, !tbaa !174
  call void @av_refstruct_replace(ptr noundef %30, ptr noundef %33)
  ret void
}

; Function Attrs: nounwind uwtable
define internal i32 @vp9_decode_update_thread_context(ptr noundef %0, ptr noundef %1) #0 {
  %3 = alloca ptr, align 8
  %4 = alloca ptr, align 8
  %5 = alloca ptr, align 8
  %6 = alloca ptr, align 8
  %7 = alloca i32, align 4
  %8 = alloca i32, align 4
  store ptr %0, ptr %3, align 8, !tbaa !4
  store ptr %1, ptr %4, align 8, !tbaa !4
  call void @llvm.lifetime.start.p0(i64 8, ptr %5) #11
  %9 = load ptr, ptr %3, align 8, !tbaa !4
  %10 = getelementptr inbounds nuw %struct.AVCodecContext, ptr %9, i32 0, i32 6
  %11 = load ptr, ptr %10, align 8, !tbaa !9
  store ptr %11, ptr %5, align 8, !tbaa !29
  call void @llvm.lifetime.start.p0(i64 8, ptr %6) #11
  %12 = load ptr, ptr %4, align 8, !tbaa !4
  %13 = getelementptr inbounds nuw %struct.AVCodecContext, ptr %12, i32 0, i32 6
  %14 = load ptr, ptr %13, align 8, !tbaa !9
  store ptr %14, ptr %6, align 8, !tbaa !29
  call void @llvm.lifetime.start.p0(i64 4, ptr %7) #11
  store i32 0, ptr %7, align 4, !tbaa !31
  br label %15

15:                                               ; preds = %32, %2
  %16 = load i32, ptr %7, align 4, !tbaa !31
  %17 = icmp slt i32 %16, 3
  br i1 %17, label %19, label %18

18:                                               ; preds = %15
  call void @llvm.lifetime.end.p0(i64 4, ptr %7) #11
  br label %35

19:                                               ; preds = %15
  %20 = load ptr, ptr %5, align 8, !tbaa !29
  %21 = getelementptr inbounds nuw %struct.VP9Context, ptr %20, i32 0, i32 0
  %22 = getelementptr inbounds nuw %struct.VP9SharedContext, ptr %21, i32 0, i32 2
  %23 = load i32, ptr %7, align 4, !tbaa !31
  %24 = sext i32 %23 to i64
  %25 = getelementptr inbounds [4 x %struct.VP9Frame], ptr %22, i64 0, i64 %24
  %26 = load ptr, ptr %6, align 8, !tbaa !29
  %27 = getelementptr inbounds nuw %struct.VP9Context, ptr %26, i32 0, i32 0
  %28 = getelementptr inbounds nuw %struct.VP9SharedContext, ptr %27, i32 0, i32 2
  %29 = load i32, ptr %7, align 4, !tbaa !31
  %30 = sext i32 %29 to i64
  %31 = getelementptr inbounds [4 x %struct.VP9Frame], ptr %28, i64 0, i64 %30
  call void @vp9_frame_replace(ptr noundef %25, ptr noundef %31)
  br label %32

32:                                               ; preds = %19
  %33 = load i32, ptr %7, align 4, !tbaa !31
  %34 = add nsw i32 %33, 1
  store i32 %34, ptr %7, align 4, !tbaa !31
  br label %15, !llvm.loop !32

35:                                               ; preds = %18
  call void @llvm.lifetime.start.p0(i64 4, ptr %8) #11
  store i32 0, ptr %8, align 4, !tbaa !31
  br label %36

36:                                               ; preds = %52, %35
  %37 = load i32, ptr %8, align 4, !tbaa !31
  %38 = icmp slt i32 %37, 8
  br i1 %38, label %40, label %39

39:                                               ; preds = %36
  call void @llvm.lifetime.end.p0(i64 4, ptr %8) #11
  br label %55

40:                                               ; preds = %36
  %41 = load ptr, ptr %5, align 8, !tbaa !29
  %42 = getelementptr inbounds nuw %struct.VP9Context, ptr %41, i32 0, i32 0
  %43 = getelementptr inbounds nuw %struct.VP9SharedContext, ptr %42, i32 0, i32 1
  %44 = load i32, ptr %8, align 4, !tbaa !31
  %45 = sext i32 %44 to i64
  %46 = getelementptr inbounds [8 x %struct.ProgressFrame], ptr %43, i64 0, i64 %45
  %47 = load ptr, ptr %6, align 8, !tbaa !29
  %48 = getelementptr inbounds nuw %struct.VP9Context, ptr %47, i32 0, i32 27
  %49 = load i32, ptr %8, align 4, !tbaa !31
  %50 = sext i32 %49 to i64
  %51 = getelementptr inbounds [8 x %struct.ProgressFrame], ptr %48, i64 0, i64 %50
  call void @ff_progress_frame_replace(ptr noundef %46, ptr noundef %51)
  br label %52

52:                                               ; preds = %40
  %53 = load i32, ptr %8, align 4, !tbaa !31
  %54 = add nsw i32 %53, 1
  store i32 %54, ptr %8, align 4, !tbaa !31
  br label %36, !llvm.loop !34

55:                                               ; preds = %39
  %56 = load ptr, ptr %5, align 8, !tbaa !29
  %57 = getelementptr inbounds nuw %struct.VP9Context, ptr %56, i32 0, i32 48
  %58 = load ptr, ptr %6, align 8, !tbaa !29
  %59 = getelementptr inbounds nuw %struct.VP9Context, ptr %58, i32 0, i32 48
  %60 = load ptr, ptr %59, align 8, !tbaa !35
  call void @av_refstruct_replace(ptr noundef %57, ptr noundef %60)
  %61 = load ptr, ptr %6, align 8, !tbaa !29
  %62 = getelementptr inbounds nuw %struct.VP9Context, ptr %61, i32 0, i32 49
  %63 = load i32, ptr %62, align 8, !tbaa !54
  %64 = load ptr, ptr %5, align 8, !tbaa !29
  %65 = getelementptr inbounds nuw %struct.VP9Context, ptr %64, i32 0, i32 49
  store i32 %63, ptr %65, align 8, !tbaa !54
  %66 = load ptr, ptr %6, align 8, !tbaa !29
  %67 = getelementptr inbounds nuw %struct.VP9Context, ptr %66, i32 0, i32 0
  %68 = getelementptr inbounds nuw %struct.VP9SharedContext, ptr %67, i32 0, i32 0
  %69 = getelementptr inbounds nuw %struct.VP9BitstreamHeader, ptr %68, i32 0, i32 3
  %70 = load i8, ptr %69, align 1, !tbaa !55
  %71 = load ptr, ptr %5, align 8, !tbaa !29
  %72 = getelementptr inbounds nuw %struct.VP9Context, ptr %71, i32 0, i32 0
  %73 = getelementptr inbounds nuw %struct.VP9SharedContext, ptr %72, i32 0, i32 0
  %74 = getelementptr inbounds nuw %struct.VP9BitstreamHeader, ptr %73, i32 0, i32 3
  store i8 %70, ptr %74, align 1, !tbaa !55
  %75 = load ptr, ptr %6, align 8, !tbaa !29
  %76 = getelementptr inbounds nuw %struct.VP9Context, ptr %75, i32 0, i32 0
  %77 = getelementptr inbounds nuw %struct.VP9SharedContext, ptr %76, i32 0, i32 0
  %78 = getelementptr inbounds nuw %struct.VP9BitstreamHeader, ptr %77, i32 0, i32 2
  %79 = load i8, ptr %78, align 2, !tbaa !56
  %80 = load ptr, ptr %5, align 8, !tbaa !29
  %81 = getelementptr inbounds nuw %struct.VP9Context, ptr %80, i32 0, i32 0
  %82 = getelementptr inbounds nuw %struct.VP9SharedContext, ptr %81, i32 0, i32 0
  %83 = getelementptr inbounds nuw %struct.VP9BitstreamHeader, ptr %82, i32 0, i32 2
  store i8 %79, ptr %83, align 2, !tbaa !56
  %84 = load ptr, ptr %6, align 8, !tbaa !29
  %85 = getelementptr inbounds nuw %struct.VP9Context, ptr %84, i32 0, i32 0
  %86 = getelementptr inbounds nuw %struct.VP9SharedContext, ptr %85, i32 0, i32 0
  %87 = getelementptr inbounds nuw %struct.VP9BitstreamHeader, ptr %86, i32 0, i32 5
  %88 = load i8, ptr %87, align 1, !tbaa !57
  %89 = load ptr, ptr %5, align 8, !tbaa !29
  %90 = getelementptr inbounds nuw %struct.VP9Context, ptr %89, i32 0, i32 0
  %91 = getelementptr inbounds nuw %struct.VP9SharedContext, ptr %90, i32 0, i32 0
  %92 = getelementptr inbounds nuw %struct.VP9BitstreamHeader, ptr %91, i32 0, i32 5
  store i8 %88, ptr %92, align 1, !tbaa !57
  %93 = load ptr, ptr %6, align 8, !tbaa !29
  %94 = getelementptr inbounds nuw %struct.VP9Context, ptr %93, i32 0, i32 13
  %95 = load i8, ptr %94, align 1, !tbaa !58
  %96 = load ptr, ptr %5, align 8, !tbaa !29
  %97 = getelementptr inbounds nuw %struct.VP9Context, ptr %96, i32 0, i32 13
  store i8 %95, ptr %97, align 1, !tbaa !58
  %98 = load ptr, ptr %6, align 8, !tbaa !29
  %99 = getelementptr inbounds nuw %struct.VP9Context, ptr %98, i32 0, i32 12
  %100 = load i8, ptr %99, align 4, !tbaa !59
  %101 = load ptr, ptr %5, align 8, !tbaa !29
  %102 = getelementptr inbounds nuw %struct.VP9Context, ptr %101, i32 0, i32 12
  store i8 %100, ptr %102, align 4, !tbaa !59
  %103 = load ptr, ptr %6, align 8, !tbaa !29
  %104 = getelementptr inbounds nuw %struct.VP9Context, ptr %103, i32 0, i32 0
  %105 = getelementptr inbounds nuw %struct.VP9SharedContext, ptr %104, i32 0, i32 0
  %106 = getelementptr inbounds nuw %struct.VP9BitstreamHeader, ptr %105, i32 0, i32 26
  %107 = getelementptr inbounds nuw %struct.anon.2, ptr %106, i32 0, i32 0
  %108 = load i8, ptr %107, align 2, !tbaa !60
  %109 = load ptr, ptr %5, align 8, !tbaa !29
  %110 = getelementptr inbounds nuw %struct.VP9Context, ptr %109, i32 0, i32 0
  %111 = getelementptr inbounds nuw %struct.VP9SharedContext, ptr %110, i32 0, i32 0
  %112 = getelementptr inbounds nuw %struct.VP9BitstreamHeader, ptr %111, i32 0, i32 26
  %113 = getelementptr inbounds nuw %struct.anon.2, ptr %112, i32 0, i32 0
  store i8 %108, ptr %113, align 2, !tbaa !60
  %114 = load ptr, ptr %6, align 8, !tbaa !29
  %115 = getelementptr inbounds nuw %struct.VP9Context, ptr %114, i32 0, i32 0
  %116 = getelementptr inbounds nuw %struct.VP9SharedContext, ptr %115, i32 0, i32 0
  %117 = getelementptr inbounds nuw %struct.VP9BitstreamHeader, ptr %116, i32 0, i32 26
  %118 = getelementptr inbounds nuw %struct.anon.2, ptr %117, i32 0, i32 3
  %119 = load i8, ptr %118, align 1, !tbaa !61
  %120 = load ptr, ptr %5, align 8, !tbaa !29
  %121 = getelementptr inbounds nuw %struct.VP9Context, ptr %120, i32 0, i32 0
  %122 = getelementptr inbounds nuw %struct.VP9SharedContext, ptr %121, i32 0, i32 0
  %123 = getelementptr inbounds nuw %struct.VP9BitstreamHeader, ptr %122, i32 0, i32 26
  %124 = getelementptr inbounds nuw %struct.anon.2, ptr %123, i32 0, i32 3
  store i8 %119, ptr %124, align 1, !tbaa !61
  %125 = load ptr, ptr %6, align 8, !tbaa !29
  %126 = getelementptr inbounds nuw %struct.VP9Context, ptr %125, i32 0, i32 0
  %127 = getelementptr inbounds nuw %struct.VP9SharedContext, ptr %126, i32 0, i32 0
  %128 = getelementptr inbounds nuw %struct.VP9BitstreamHeader, ptr %127, i32 0, i32 26
  %129 = getelementptr inbounds nuw %struct.anon.2, ptr %128, i32 0, i32 2
  %130 = load i8, ptr %129, align 2, !tbaa !62
  %131 = load ptr, ptr %5, align 8, !tbaa !29
  %132 = getelementptr inbounds nuw %struct.VP9Context, ptr %131, i32 0, i32 0
  %133 = getelementptr inbounds nuw %struct.VP9SharedContext, ptr %132, i32 0, i32 0
  %134 = getelementptr inbounds nuw %struct.VP9BitstreamHeader, ptr %133, i32 0, i32 26
  %135 = getelementptr inbounds nuw %struct.anon.2, ptr %134, i32 0, i32 2
  store i8 %130, ptr %135, align 2, !tbaa !62
  %136 = load ptr, ptr %6, align 8, !tbaa !29
  %137 = getelementptr inbounds nuw %struct.VP9Context, ptr %136, i32 0, i32 16
  %138 = load i8, ptr %137, align 8, !tbaa !63
  %139 = load ptr, ptr %5, align 8, !tbaa !29
  %140 = getelementptr inbounds nuw %struct.VP9Context, ptr %139, i32 0, i32 16
  store i8 %138, ptr %140, align 8, !tbaa !63
  %141 = load ptr, ptr %6, align 8, !tbaa !29
  %142 = getelementptr inbounds nuw %struct.VP9Context, ptr %141, i32 0, i32 22
  %143 = load i32, ptr %142, align 4, !tbaa !64
  %144 = load ptr, ptr %5, align 8, !tbaa !29
  %145 = getelementptr inbounds nuw %struct.VP9Context, ptr %144, i32 0, i32 22
  store i32 %143, ptr %145, align 4, !tbaa !64
  %146 = load ptr, ptr %6, align 8, !tbaa !29
  %147 = getelementptr inbounds nuw %struct.VP9Context, ptr %146, i32 0, i32 18
  %148 = load i32, ptr %147, align 4, !tbaa !65
  %149 = load ptr, ptr %5, align 8, !tbaa !29
  %150 = getelementptr inbounds nuw %struct.VP9Context, ptr %149, i32 0, i32 18
  store i32 %148, ptr %150, align 4, !tbaa !65
  %151 = load ptr, ptr %6, align 8, !tbaa !29
  %152 = getelementptr inbounds nuw %struct.VP9Context, ptr %151, i32 0, i32 19
  %153 = load i32, ptr %152, align 8, !tbaa !66
  %154 = load ptr, ptr %5, align 8, !tbaa !29
  %155 = getelementptr inbounds nuw %struct.VP9Context, ptr %154, i32 0, i32 19
  store i32 %153, ptr %155, align 8, !tbaa !66
  %156 = load ptr, ptr %6, align 8, !tbaa !29
  %157 = getelementptr inbounds nuw %struct.VP9Context, ptr %156, i32 0, i32 0
  %158 = getelementptr inbounds nuw %struct.VP9SharedContext, ptr %157, i32 0, i32 0
  %159 = getelementptr inbounds nuw %struct.VP9BitstreamHeader, ptr %158, i32 0, i32 1
  %160 = load i8, ptr %159, align 1, !tbaa !67
  %161 = load ptr, ptr %5, align 8, !tbaa !29
  %162 = getelementptr inbounds nuw %struct.VP9Context, ptr %161, i32 0, i32 0
  %163 = getelementptr inbounds nuw %struct.VP9SharedContext, ptr %162, i32 0, i32 0
  %164 = getelementptr inbounds nuw %struct.VP9BitstreamHeader, ptr %163, i32 0, i32 1
  store i8 %160, ptr %164, align 1, !tbaa !67
  %165 = load ptr, ptr %6, align 8, !tbaa !29
  %166 = getelementptr inbounds nuw %struct.VP9Context, ptr %165, i32 0, i32 15
  %167 = load i8, ptr %166, align 1, !tbaa !68
  %168 = load ptr, ptr %5, align 8, !tbaa !29
  %169 = getelementptr inbounds nuw %struct.VP9Context, ptr %168, i32 0, i32 15
  store i8 %167, ptr %169, align 1, !tbaa !68
  %170 = load ptr, ptr %6, align 8, !tbaa !29
  %171 = getelementptr inbounds nuw %struct.VP9Context, ptr %170, i32 0, i32 20
  %172 = load i32, ptr %171, align 4, !tbaa !69
  %173 = load ptr, ptr %5, align 8, !tbaa !29
  %174 = getelementptr inbounds nuw %struct.VP9Context, ptr %173, i32 0, i32 20
  store i32 %172, ptr %174, align 4, !tbaa !69
  %175 = load ptr, ptr %5, align 8, !tbaa !29
  %176 = getelementptr inbounds nuw %struct.VP9Context, ptr %175, i32 0, i32 29
  %177 = load ptr, ptr %6, align 8, !tbaa !29
  %178 = getelementptr inbounds nuw %struct.VP9Context, ptr %177, i32 0, i32 29
  call void @llvm.memcpy.p0.p0.i64(ptr align 8 %176, ptr align 8 %178, i64 8156, i1 false)
  %179 = load ptr, ptr %5, align 8, !tbaa !29
  %180 = getelementptr inbounds nuw %struct.VP9Context, ptr %179, i32 0, i32 0
  %181 = getelementptr inbounds nuw %struct.VP9SharedContext, ptr %180, i32 0, i32 0
  %182 = getelementptr inbounds nuw %struct.VP9BitstreamHeader, ptr %181, i32 0, i32 20
  %183 = load ptr, ptr %6, align 8, !tbaa !29
  %184 = getelementptr inbounds nuw %struct.VP9Context, ptr %183, i32 0, i32 0
  %185 = getelementptr inbounds nuw %struct.VP9SharedContext, ptr %184, i32 0, i32 0
  %186 = getelementptr inbounds nuw %struct.VP9BitstreamHeader, ptr %185, i32 0, i32 20
  call void @llvm.memcpy.p0.p0.i64(ptr align 8 %182, ptr align 8 %186, i64 8, i1 false)
  %187 = load ptr, ptr %5, align 8, !tbaa !29
  %188 = getelementptr inbounds nuw %struct.VP9Context, ptr %187, i32 0, i32 0
  %189 = getelementptr inbounds nuw %struct.VP9SharedContext, ptr %188, i32 0, i32 0
  %190 = getelementptr inbounds nuw %struct.VP9BitstreamHeader, ptr %189, i32 0, i32 26
  %191 = getelementptr inbounds nuw %struct.anon.2, ptr %190, i32 0, i32 6
  %192 = load ptr, ptr %6, align 8, !tbaa !29
  %193 = getelementptr inbounds nuw %struct.VP9Context, ptr %192, i32 0, i32 0
  %194 = getelementptr inbounds nuw %struct.VP9SharedContext, ptr %193, i32 0, i32 0
  %195 = getelementptr inbounds nuw %struct.VP9BitstreamHeader, ptr %194, i32 0, i32 26
  %196 = getelementptr inbounds nuw %struct.anon.2, ptr %195, i32 0, i32 6
  call void @llvm.memcpy.p0.p0.i64(ptr align 2 %191, ptr align 2 %196, i64 208, i1 false)
  call void @llvm.lifetime.end.p0(i64 8, ptr %6) #11
  call void @llvm.lifetime.end.p0(i64 8, ptr %5) #11
  ret i32 0
}