; Function Attrs: nounwind uwtable
define internal noundef i32 @vp9_decode_update_thread_context(ptr noundef readonly captures(none) %0, ptr noundef readonly captures(none) %1) #0 {
  %3 = getelementptr inbounds nuw i8, ptr %0, i64 32
  %4 = load ptr, ptr %3, align 8, !tbaa !4
  %5 = getelementptr inbounds nuw i8, ptr %1, i64 32
  %6 = load ptr, ptr %5, align 8, !tbaa !4
  %7 = getelementptr inbounds nuw i8, ptr %4, i64 432
  %8 = getelementptr inbounds nuw i8, ptr %6, i64 432
  br label %11

.preheader:                                       ; preds = %11
  %9 = getelementptr inbounds nuw i8, ptr %4, i64 304
  %10 = getelementptr inbounds nuw i8, ptr %6, i64 3264
  br label %88

11:                                               ; preds = %2, %11
  %indvars.iv = phi i64 [ 0, %2 ], [ %indvars.iv.next, %11 ]
  %12 = getelementptr inbounds nuw [4 x %struct.VP9Frame], ptr %7, i64 0, i64 %indvars.iv
  %13 = getelementptr inbounds nuw [4 x %struct.VP9Frame], ptr %8, i64 0, i64 %indvars.iv
  tail call void @ff_progress_frame_replace(ptr noundef nonnull %12, ptr noundef nonnull %13) #12
  %14 = getelementptr inbounds nuw i8, ptr %12, i64 16
  %15 = getelementptr inbounds nuw i8, ptr %13, i64 16
  %16 = load ptr, ptr %15, align 8, !tbaa !27
  tail call void @av_refstruct_replace(ptr noundef nonnull %14, ptr noundef %16) #12
  %17 = getelementptr inbounds nuw i8, ptr %13, i64 24
  %18 = load ptr, ptr %17, align 8, !tbaa !33
  %19 = getelementptr inbounds nuw i8, ptr %12, i64 24
  store ptr %18, ptr %19, align 8, !tbaa !33
  %20 = getelementptr inbounds nuw i8, ptr %13, i64 32
  %21 = load ptr, ptr %20, align 8, !tbaa !34
  %22 = getelementptr inbounds nuw i8, ptr %12, i64 32
  store ptr %21, ptr %22, align 8, !tbaa !34
  %23 = getelementptr inbounds nuw i8, ptr %13, i64 40
  %24 = load i32, ptr %23, align 8, !tbaa !35
  %25 = getelementptr inbounds nuw i8, ptr %12, i64 40
  store i32 %24, ptr %25, align 8, !tbaa !35
  %26 = getelementptr inbounds nuw i8, ptr %12, i64 48
  %27 = getelementptr inbounds nuw i8, ptr %13, i64 48
  %28 = load ptr, ptr %27, align 8, !tbaa !36
  tail call void @av_refstruct_replace(ptr noundef nonnull %26, ptr noundef %28) #12
  %indvars.iv.next = add nuw nsw i64 %indvars.iv, 1
  %exitcond.not = icmp eq i64 %indvars.iv.next, 3
  br i1 %exitcond.not, label %.preheader, label %11, !llvm.loop !37

29:                                               ; preds = %88
  %30 = getelementptr inbounds nuw i8, ptr %4, i64 18488
  %31 = getelementptr inbounds nuw i8, ptr %6, i64 18488
  %32 = load ptr, ptr %31, align 8, !tbaa !39
  tail call void @av_refstruct_replace(ptr noundef nonnull %30, ptr noundef %32) #12
  %33 = getelementptr inbounds nuw i8, ptr %6, i64 18496
  %34 = load i32, ptr %33, align 8, !tbaa !58
  %35 = getelementptr inbounds nuw i8, ptr %4, i64 18496
  store i32 %34, ptr %35, align 8, !tbaa !58
  %36 = getelementptr inbounds nuw i8, ptr %6, i64 3
  %37 = load i8, ptr %36, align 1, !tbaa !59
  %38 = getelementptr inbounds nuw i8, ptr %4, i64 3
  store i8 %37, ptr %38, align 1, !tbaa !59
  %39 = getelementptr inbounds nuw i8, ptr %6, i64 2
  %40 = load i8, ptr %39, align 2, !tbaa !60
  %41 = getelementptr inbounds nuw i8, ptr %4, i64 2
  store i8 %40, ptr %41, align 2, !tbaa !60
  %42 = getelementptr inbounds nuw i8, ptr %6, i64 5
  %43 = load i8, ptr %42, align 1, !tbaa !61
  %44 = getelementptr inbounds nuw i8, ptr %4, i64 5
  store i8 %43, ptr %44, align 1, !tbaa !61
  %45 = getelementptr inbounds nuw i8, ptr %6, i64 3221
  %46 = load i8, ptr %45, align 1, !tbaa !62
  %47 = getelementptr inbounds nuw i8, ptr %4, i64 3221
  store i8 %46, ptr %47, align 1, !tbaa !62
  %48 = getelementptr inbounds nuw i8, ptr %6, i64 3220
  %49 = load i8, ptr %48, align 4, !tbaa !63
  %50 = getelementptr inbounds nuw i8, ptr %4, i64 3220
  store i8 %49, ptr %50, align 4, !tbaa !63
  %51 = getelementptr inbounds nuw i8, ptr %6, i64 46
  %52 = load i8, ptr %51, align 2, !tbaa !64
  %53 = getelementptr inbounds nuw i8, ptr %4, i64 46
  store i8 %52, ptr %53, align 2, !tbaa !64
  %54 = getelementptr inbounds nuw i8, ptr %6, i64 49
  %55 = load i8, ptr %54, align 1, !tbaa !65
  %56 = getelementptr inbounds nuw i8, ptr %4, i64 49
  store i8 %55, ptr %56, align 1, !tbaa !65
  %57 = getelementptr inbounds nuw i8, ptr %6, i64 48
  %58 = load i8, ptr %57, align 2, !tbaa !66
  %59 = getelementptr inbounds nuw i8, ptr %4, i64 48
  store i8 %58, ptr %59, align 2, !tbaa !66
  %60 = getelementptr inbounds nuw i8, ptr %6, i64 3224
  %61 = load i8, ptr %60, align 8, !tbaa !67
  %62 = getelementptr inbounds nuw i8, ptr %4, i64 3224
  store i8 %61, ptr %62, align 8, !tbaa !67
  %63 = getelementptr inbounds nuw i8, ptr %6, i64 3244
  %64 = load i32, ptr %63, align 4, !tbaa !68
  %65 = getelementptr inbounds nuw i8, ptr %4, i64 3244
  store i32 %64, ptr %65, align 4, !tbaa !68
  %66 = getelementptr inbounds nuw i8, ptr %6, i64 3228
  %67 = load i32, ptr %66, align 4, !tbaa !69
  %68 = getelementptr inbounds nuw i8, ptr %4, i64 3228
  store i32 %67, ptr %68, align 4, !tbaa !69
  %69 = getelementptr inbounds nuw i8, ptr %6, i64 3232
  %70 = load i32, ptr %69, align 8, !tbaa !70
  %71 = getelementptr inbounds nuw i8, ptr %4, i64 3232
  store i32 %70, ptr %71, align 8, !tbaa !70
  %72 = getelementptr inbounds nuw i8, ptr %6, i64 1
  %73 = load i8, ptr %72, align 1, !tbaa !71
  %74 = getelementptr inbounds nuw i8, ptr %4, i64 1
  store i8 %73, ptr %74, align 1, !tbaa !71
  %75 = getelementptr inbounds nuw i8, ptr %6, i64 3223
  %76 = load i8, ptr %75, align 1, !tbaa !72
  %77 = getelementptr inbounds nuw i8, ptr %4, i64 3223
  store i8 %76, ptr %77, align 1, !tbaa !72
  %78 = getelementptr inbounds nuw i8, ptr %6, i64 3236
  %79 = load i32, ptr %78, align 4, !tbaa !73
  %80 = getelementptr inbounds nuw i8, ptr %4, i64 3236
  store i32 %79, ptr %80, align 4, !tbaa !73
  %81 = getelementptr inbounds nuw i8, ptr %4, i64 3520
  %82 = getelementptr inbounds nuw i8, ptr %6, i64 3520
  tail call void @llvm.memcpy.p0.p0.i64(ptr noundef nonnull align 8 dereferenceable(8156) %81, ptr noundef nonnull align 8 dereferenceable(8156) %82, i64 8156, i1 false)
  %83 = getelementptr inbounds nuw i8, ptr %4, i64 32
  %84 = getelementptr inbounds nuw i8, ptr %6, i64 32
  %85 = load i64, ptr %84, align 8
  store i64 %85, ptr %83, align 8
  %86 = getelementptr inbounds nuw i8, ptr %4, i64 60
  %87 = getelementptr inbounds nuw i8, ptr %6, i64 60
  tail call void @llvm.memcpy.p0.p0.i64(ptr noundef nonnull align 2 dereferenceable(208) %86, ptr noundef nonnull align 2 dereferenceable(208) %87, i64 208, i1 false)
  ret i32 0

88:                                               ; preds = %.preheader, %88
  %indvars.iv57 = phi i64 [ 0, %.preheader ], [ %indvars.iv.next58, %88 ]
  %89 = getelementptr inbounds nuw [8 x %struct.ProgressFrame], ptr %9, i64 0, i64 %indvars.iv57
  %90 = getelementptr inbounds nuw [8 x %struct.ProgressFrame], ptr %10, i64 0, i64 %indvars.iv57
  tail call void @ff_progress_frame_replace(ptr noundef nonnull %89, ptr noundef nonnull %90) #12
  %indvars.iv.next58 = add nuw nsw i64 %indvars.iv57, 1
  %exitcond60.not = icmp eq i64 %indvars.iv.next58, 8
  br i1 %exitcond60.not, label %29, label %88, !llvm.loop !74
}